; Function Attrs: nounwind uwtable
define i32 @Fraig_CountPis(ptr noundef readonly captures(none) %0, ptr noundef %1) local_unnamed_addr #0 {
  %3 = tail call i32 @Msat_IntVecReadSize(ptr noundef %1) #15
  %4 = tail call ptr @Msat_IntVecReadArray(ptr noundef %1) #15
  %5 = icmp sgt i32 %3, 0
  br i1 %5, label %.lr.ph, label %._crit_edge

.lr.ph:                                           ; preds = %2
  %6 = getelementptr inbounds nuw i8, ptr %0, i64 8
  %wide.trip.count = zext nneg i32 %3 to i64
  br label %7

7:                                                ; preds = %.lr.ph, %7
  %indvars.iv = phi i64 [ 0, %.lr.ph ], [ %indvars.iv.next, %7 ]
  %.011 = phi i32 [ 0, %.lr.ph ], [ %17, %7 ]
  %8 = load ptr, ptr %6, align 8
  %9 = getelementptr inbounds nuw i8, ptr %8, i64 8
  %10 = load ptr, ptr %9, align 8
  %11 = getelementptr inbounds nuw i32, ptr %4, i64 %indvars.iv
  %12 = load i32, ptr %11, align 4
  %13 = sext i32 %12 to i64
  %14 = getelementptr inbounds ptr, ptr %10, i64 %13
  %15 = load ptr, ptr %14, align 8
  %16 = tail call i32 @Fraig_NodeIsVar(ptr noundef %15) #15
  %17 = add nsw i32 %16, %.011
  %indvars.iv.next = add nuw nsw i64 %indvars.iv, 1
  %exitcond.not = icmp eq i64 %indvars.iv.next, %wide.trip.count
  br i1 %exitcond.not, label %._crit_edge, label %7, !llvm.loop !23

._crit_edge:                                      ; preds = %7, %2
  %.0.lcssa = phi i32 [ 0, %2 ], [ %17, %7 ]
  ret i32 %.0.lcssa
}